target datalayout = "e-m:e-p270:32:32-p271:32:32-p272:64:64-i64:64-i128:128-f80:128-n8:16:32:64-S128"
target triple = "x86_64-pc-linux-gnu"

%struct.gmx_ana_index_t = type { i32, ptr, i32 }

; Function Attrs: mustprogress nounwind uwtable
define noundef i32 @_Z29gmx_ana_index_difference_sizeP15gmx_ana_index_tS0_(ptr noundef %0, ptr noundef %1) #1 {
  %3 = alloca ptr, align 8
  %4 = alloca ptr, align 8
  %5 = alloca i32, align 4
  %6 = alloca i32, align 4
  %7 = alloca i32, align 4
  store ptr %0, ptr %3, align 8, !tbaa !232
  store ptr %1, ptr %4, align 8, !tbaa !232
  call void @llvm.lifetime.start.p0(i64 4, ptr %5) #19
  call void @llvm.lifetime.start.p0(i64 4, ptr %6) #19
  call void @llvm.lifetime.start.p0(i64 4, ptr %7) #19
  store i32 0, ptr %7, align 4, !tbaa !114
  store i32 0, ptr %6, align 4, !tbaa !114
  store i32 0, ptr %5, align 4, !tbaa !114
  br label %8

8:                                                ; preds = %68, %2
  %9 = load i32, ptr %5, align 4, !tbaa !114
  %10 = load ptr, ptr %3, align 8, !tbaa !232
  %11 = getelementptr inbounds nuw %struct.gmx_ana_index_t, ptr %10, i32 0, i32 0
  %12 = load i32, ptr %11, align 8, !tbaa !234
  %13 = icmp slt i32 %9, %12
  br i1 %13, label %14, label %71

14:                                               ; preds = %8
  br label %15

15:                                               ; preds = %39, %14
  %16 = load i32, ptr %6, align 4, !tbaa !114
  %17 = load ptr, ptr %4, align 8, !tbaa !232
  %18 = getelementptr inbounds nuw %struct.gmx_ana_index_t, ptr %17, i32 0, i32 0
  %19 = load i32, ptr %18, align 8, !tbaa !234
  %20 = icmp slt i32 %16, %19
  br i1 %20, label %21, label %37

21:                                               ; preds = %15
  %22 = load ptr, ptr %4, align 8, !tbaa !232
  %23 = getelementptr inbounds nuw %struct.gmx_ana_index_t, ptr %22, i32 0, i32 1
  %24 = load ptr, ptr %23, align 8, !tbaa !236
  %25 = load i32, ptr %6, align 4, !tbaa !114
  %26 = sext i32 %25 to i64
  %27 = getelementptr inbounds i32, ptr %24, i64 %26
  %28 = load i32, ptr %27, align 4, !tbaa !114
  %29 = load ptr, ptr %3, align 8, !tbaa !232
  %30 = getelementptr inbounds nuw %struct.gmx_ana_index_t, ptr %29, i32 0, i32 1
  %31 = load ptr, ptr %30, align 8, !tbaa !236
  %32 = load i32, ptr %5, align 4, !tbaa !114
  %33 = sext i32 %32 to i64
  %34 = getelementptr inbounds i32, ptr %31, i64 %33
  %35 = load i32, ptr %34, align 4, !tbaa !114
  %36 = icmp slt i32 %28, %35
  br label %37

37:                                               ; preds = %21, %15
  %38 = phi i1 [ false, %15 ], [ %36, %21 ]
  br i1 %38, label %39, label %42

39:                                               ; preds = %37
  %40 = load i32, ptr %6, align 4, !tbaa !114
  %41 = add nsw i32 %40, 1
  store i32 %41, ptr %6, align 4, !tbaa !114
  br label %15, !llvm.loop !338

42:                                               ; preds = %37
  %43 = load i32, ptr %6, align 4, !tbaa !114
  %44 = load ptr, ptr %4, align 8, !tbaa !232
  %45 = getelementptr inbounds nuw %struct.gmx_ana_index_t, ptr %44, i32 0, i32 0
  %46 = load i32, ptr %45, align 8, !tbaa !234
  %47 = icmp eq i32 %43, %46
  br i1 %47, label %64, label %48

48:                                               ; preds = %42
  %49 = load ptr, ptr %4, align 8, !tbaa !232
  %50 = getelementptr inbounds nuw %struct.gmx_ana_index_t, ptr %49, i32 0, i32 1
  %51 = load ptr, ptr %50, align 8, !tbaa !236
  %52 = load i32, ptr %6, align 4, !tbaa !114
  %53 = sext i32 %52 to i64
  %54 = getelementptr inbounds i32, ptr %51, i64 %53
  %55 = load i32, ptr %54, align 4, !tbaa !114
  %56 = load ptr, ptr %3, align 8, !tbaa !232
  %57 = getelementptr inbounds nuw %struct.gmx_ana_index_t, ptr %56, i32 0, i32 1
  %58 = load ptr, ptr %57, align 8, !tbaa !236
  %59 = load i32, ptr %5, align 4, !tbaa !114
  %60 = sext i32 %59 to i64
  %61 = getelementptr inbounds i32, ptr %58, i64 %60
  %62 = load i32, ptr %61, align 4, !tbaa !114
  %63 = icmp ne i32 %55, %62
  br i1 %63, label %64, label %67

64:                                               ; preds = %48, %42
  %65 = load i32, ptr %7, align 4, !tbaa !114
  %66 = add nsw i32 %65, 1
  store i32 %66, ptr %7, align 4, !tbaa !114
  br label %67

67:                                               ; preds = %64, %48
  br label %68

68:                                               ; preds = %67
  %69 = load i32, ptr %5, align 4, !tbaa !114
  %70 = add nsw i32 %69, 1
  store i32 %70, ptr %5, align 4, !tbaa !114
  br label %8, !llvm.loop !339

71:                                               ; preds = %8
  %72 = load i32, ptr %7, align 4, !tbaa !114
  call void @llvm.lifetime.end.p0(i64 4, ptr %7) #19
  call void @llvm.lifetime.end.p0(i64 4, ptr %6) #19
  call void @llvm.lifetime.end.p0(i64 4, ptr %5) #19
  ret i32 %72
}

; Function Attrs: mustprogress nounwind uwtable
define void @_Z19gmx_ana_index_unionP15gmx_ana_index_tS0_S0_(ptr noundef %0, ptr noundef %1, ptr noundef %2) #1 {
  %4 = alloca ptr, align 8
  %5 = alloca ptr, align 8
  %6 = alloca ptr, align 8
  %7 = alloca i32, align 4
  %8 = alloca i32, align 4
  %9 = alloca i32, align 4
  %10 = alloca i32, align 4
  store ptr %0, ptr %4, align 8, !tbaa !232
  store ptr %1, ptr %5, align 8, !tbaa !232
  store ptr %2, ptr %6, align 8, !tbaa !232
  call void @llvm.lifetime.start.p0(i64 4, ptr %7) #19
  call void @llvm.lifetime.start.p0(i64 4, ptr %8) #19
  call void @llvm.lifetime.start.p0(i64 4, ptr %9) #19
  call void @llvm.lifetime.start.p0(i64 4, ptr %10) #19
  %11 = load ptr, ptr %6, align 8, !tbaa !232
  %12 = load ptr, ptr %5, align 8, !tbaa !232
  %13 = call noundef i32 @_Z29gmx_ana_index_difference_sizeP15gmx_ana_index_tS0_(ptr noundef %11, ptr noundef %12)
  store i32 %13, ptr %7, align 4, !tbaa !114
  %14 = load ptr, ptr %5, align 8, !tbaa !232
  %15 = getelementptr inbounds nuw %struct.gmx_ana_index_t, ptr %14, i32 0, i32 0
  %16 = load i32, ptr %15, align 8, !tbaa !234
  %17 = sub nsw i32 %16, 1
  store i32 %17, ptr %8, align 4, !tbaa !114
  %18 = load ptr, ptr %6, align 8, !tbaa !232
  %19 = getelementptr inbounds nuw %struct.gmx_ana_index_t, ptr %18, i32 0, i32 0
  %20 = load i32, ptr %19, align 8, !tbaa !234
  %21 = sub nsw i32 %20, 1
  store i32 %21, ptr %9, align 4, !tbaa !114
  %22 = load ptr, ptr %5, align 8, !tbaa !232
  %23 = getelementptr inbounds nuw %struct.gmx_ana_index_t, ptr %22, i32 0, i32 0
  %24 = load i32, ptr %23, align 8, !tbaa !234
  %25 = load i32, ptr %7, align 4, !tbaa !114
  %26 = add nsw i32 %24, %25
  %27 = load ptr, ptr %4, align 8, !tbaa !232
  %28 = getelementptr inbounds nuw %struct.gmx_ana_index_t, ptr %27, i32 0, i32 0
  store i32 %26, ptr %28, align 8, !tbaa !234
  %29 = load ptr, ptr %4, align 8, !tbaa !232
  %30 = getelementptr inbounds nuw %struct.gmx_ana_index_t, ptr %29, i32 0, i32 0
  %31 = load i32, ptr %30, align 8, !tbaa !234
  %32 = sub nsw i32 %31, 1
  store i32 %32, ptr %10, align 4, !tbaa !114
  br label %33

33:                                               ; preds = %111, %3
  %34 = load i32, ptr %10, align 4, !tbaa !114
  %35 = icmp sge i32 %34, 0
  br i1 %35, label %36, label %114

36:                                               ; preds = %33
  %37 = load i32, ptr %8, align 4, !tbaa !114
  %38 = icmp slt i32 %37, 0
  br i1 %38, label %58, label %39

39:                                               ; preds = %36
  %40 = load i32, ptr %9, align 4, !tbaa !114
  %41 = icmp sge i32 %40, 0
  br i1 %41, label %42, label %73

42:                                               ; preds = %39
  %43 = load ptr, ptr %5, align 8, !tbaa !232
  %44 = getelementptr inbounds nuw %struct.gmx_ana_index_t, ptr %43, i32 0, i32 1
  %45 = load ptr, ptr %44, align 8, !tbaa !236
  %46 = load i32, ptr %8, align 4, !tbaa !114
  %47 = sext i32 %46 to i64
  %48 = getelementptr inbounds i32, ptr %45, i64 %47
  %49 = load i32, ptr %48, align 4, !tbaa !114
  %50 = load ptr, ptr %6, align 8, !tbaa !232
  %51 = getelementptr inbounds nuw %struct.gmx_ana_index_t, ptr %50, i32 0, i32 1
  %52 = load ptr, ptr %51, align 8, !tbaa !236
  %53 = load i32, ptr %9, align 4, !tbaa !114
  %54 = sext i32 %53 to i64
  %55 = getelementptr inbounds i32, ptr %52, i64 %54
  %56 = load i32, ptr %55, align 4, !tbaa !114
  %57 = icmp slt i32 %49, %56
  br i1 %57, label %58, label %73

58:                                               ; preds = %42, %36
  %59 = load ptr, ptr %6, align 8, !tbaa !232
  %60 = getelementptr inbounds nuw %struct.gmx_ana_index_t, ptr %59, i32 0, i32 1
  %61 = load ptr, ptr %60, align 8, !tbaa !236
  %62 = load i32, ptr %9, align 4, !tbaa !114
  %63 = add nsw i32 %62, -1
  store i32 %63, ptr %9, align 4, !tbaa !114
  %64 = sext i32 %62 to i64
  %65 = getelementptr inbounds i32, ptr %61, i64 %64
  %66 = load i32, ptr %65, align 4, !tbaa !114
  %67 = load ptr, ptr %4, align 8, !tbaa !232
  %68 = getelementptr inbounds nuw %struct.gmx_ana_index_t, ptr %67, i32 0, i32 1
  %69 = load ptr, ptr %68, align 8, !tbaa !236
  %70 = load i32, ptr %10, align 4, !tbaa !114
  %71 = sext i32 %70 to i64
  %72 = getelementptr inbounds i32, ptr %69, i64 %71
  store i32 %66, ptr %72, align 4, !tbaa !114
  br label %110

73:                                               ; preds = %42, %39
  %74 = load i32, ptr %9, align 4, !tbaa !114
  %75 = icmp sge i32 %74, 0
  br i1 %75, label %76, label %95

76:                                               ; preds = %73
  %77 = load ptr, ptr %5, align 8, !tbaa !232
  %78 = getelementptr inbounds nuw %struct.gmx_ana_index_t, ptr %77, i32 0, i32 1
  %79 = load ptr, ptr %78, align 8, !tbaa !236
  %80 = load i32, ptr %8, align 4, !tbaa !114
  %81 = sext i32 %80 to i64
  %82 = getelementptr inbounds i32, ptr %79, i64 %81
  %83 = load i32, ptr %82, align 4, !tbaa !114
  %84 = load ptr, ptr %6, align 8, !tbaa !232
  %85 = getelementptr inbounds nuw %struct.gmx_ana_index_t, ptr %84, i32 0, i32 1
  %86 = load ptr, ptr %85, align 8, !tbaa !236
  %87 = load i32, ptr %9, align 4, !tbaa !114
  %88 = sext i32 %87 to i64
  %89 = getelementptr inbounds i32, ptr %86, i64 %88
  %90 = load i32, ptr %89, align 4, !tbaa !114
  %91 = icmp eq i32 %83, %90
  br i1 %91, label %92, label %95

92:                                               ; preds = %76
  %93 = load i32, ptr %9, align 4, !tbaa !114
  %94 = add nsw i32 %93, -1
  store i32 %94, ptr %9, align 4, !tbaa !114
  br label %95

95:                                               ; preds = %92, %76, %73
  %96 = load ptr, ptr %5, align 8, !tbaa !232
  %97 = getelementptr inbounds nuw %struct.gmx_ana_index_t, ptr %96, i32 0, i32 1
  %98 = load ptr, ptr %97, align 8, !tbaa !236
  %99 = load i32, ptr %8, align 4, !tbaa !114
  %100 = add nsw i32 %99, -1
  store i32 %100, ptr %8, align 4, !tbaa !114
  %101 = sext i32 %99 to i64
  %102 = getelementptr inbounds i32, ptr %98, i64 %101
  %103 = load i32, ptr %102, align 4, !tbaa !114
  %104 = load ptr, ptr %4, align 8, !tbaa !232
  %105 = getelementptr inbounds nuw %struct.gmx_ana_index_t, ptr %104, i32 0, i32 1
  %106 = load ptr, ptr %105, align 8, !tbaa !236
  %107 = load i32, ptr %10, align 4, !tbaa !114
  %108 = sext i32 %107 to i64
  %109 = getelementptr inbounds i32, ptr %106, i64 %108
  store i32 %103, ptr %109, align 4, !tbaa !114
  br label %110

110:                                              ; preds = %95, %58
  br label %111

111:                                              ; preds = %110
  %112 = load i32, ptr %10, align 4, !tbaa !114
  %113 = add nsw i32 %112, -1
  store i32 %113, ptr %10, align 4, !tbaa !114
  br label %33, !llvm.loop !343

114:                                              ; preds = %33
  call void @llvm.lifetime.end.p0(i64 4, ptr %10) #19
  call void @llvm.lifetime.end.p0(i64 4, ptr %9) #19
  call void @llvm.lifetime.end.p0(i64 4, ptr %8) #19
  call void @llvm.lifetime.end.p0(i64 4, ptr %7) #19
  ret void
}