; Function Attrs: mustprogress nofree norecurse nosync nounwind memory(readwrite, inaccessiblemem: none) uwtable
define void @_Z19gmx_ana_index_unionP15gmx_ana_index_tS0_S0_(ptr noundef captures(none) %0, ptr noundef readonly captures(none) %1, ptr noundef readonly captures(none) %2) local_unnamed_addr #20 {
  %4 = load i32, ptr %2, align 8, !tbaa !73
  %5 = icmp sgt i32 %4, 0
  %.pre = load i32, ptr %1, align 8, !tbaa !73
  br i1 %5, label %.preheader.lr.ph.i, label %_Z29gmx_ana_index_difference_sizeP15gmx_ana_index_tS0_.exit

.preheader.lr.ph.i:                               ; preds = %3
  %6 = getelementptr inbounds nuw i8, ptr %1, i64 8
  %7 = getelementptr inbounds nuw i8, ptr %2, i64 8
  %8 = sext i32 %.pre to i64
  %wide.trip.count.i = zext nneg i32 %4 to i64
  br label %.preheader.i

.preheader.i:                                     ; preds = %31, %.preheader.lr.ph.i
  %indvars.iv30.i = phi i64 [ 0, %.preheader.lr.ph.i ], [ %indvars.iv.next31.i, %31 ]
  %.027.i = phi i32 [ 0, %.preheader.lr.ph.i ], [ %.1.i, %31 ]
  %.01726.i = phi i32 [ 0, %.preheader.lr.ph.i ], [ %.118.lcssa36.i, %31 ]
  %9 = icmp slt i32 %.01726.i, %.pre
  br i1 %9, label %.lr.ph.i, label %.critedge.i

.lr.ph.i:                                         ; preds = %.preheader.i
  %10 = load ptr, ptr %6, align 8, !tbaa !108
  %11 = load ptr, ptr %7, align 8, !tbaa !108
  %12 = getelementptr inbounds nuw i32, ptr %11, i64 %indvars.iv30.i
  %13 = load i32, ptr %12, align 4, !tbaa !36
  %14 = sext i32 %.01726.i to i64
  br label %15

15:                                               ; preds = %19, %.lr.ph.i
  %indvars.iv.i = phi i64 [ %14, %.lr.ph.i ], [ %indvars.iv.next.i, %19 ]
  %16 = getelementptr inbounds i32, ptr %10, i64 %indvars.iv.i
  %17 = load i32, ptr %16, align 4, !tbaa !36
  %18 = icmp slt i32 %17, %13
  br i1 %18, label %19, label %.critedge.loopexit.i

19:                                               ; preds = %15
  %indvars.iv.next.i = add nsw i64 %indvars.iv.i, 1
  %exitcond.not.i = icmp eq i64 %indvars.iv.next.i, %8
  br i1 %exitcond.not.i, label %.critedge.thread.i, label %15, !llvm.loop !135

.critedge.loopexit.i:                             ; preds = %15
  %20 = trunc nsw i64 %indvars.iv.i to i32
  br label %.critedge.i

.critedge.i:                                      ; preds = %.critedge.loopexit.i, %.preheader.i
  %.118.lcssa.i = phi i32 [ %.01726.i, %.preheader.i ], [ %20, %.critedge.loopexit.i ]
  %21 = icmp eq i32 %.118.lcssa.i, %.pre
  br i1 %21, label %.critedge.thread.i, label %22

22:                                               ; preds = %.critedge.i
  %23 = load ptr, ptr %6, align 8, !tbaa !108
  %24 = sext i32 %.118.lcssa.i to i64
  %25 = getelementptr inbounds i32, ptr %23, i64 %24
  %26 = load i32, ptr %25, align 4, !tbaa !36
  %27 = load ptr, ptr %7, align 8, !tbaa !108
  %28 = getelementptr inbounds nuw i32, ptr %27, i64 %indvars.iv30.i
  %29 = load i32, ptr %28, align 4, !tbaa !36
  %.not.i = icmp eq i32 %26, %29
  br i1 %.not.i, label %31, label %.critedge.thread.i

.critedge.thread.i:                               ; preds = %19, %22, %.critedge.i
  %.118.lcssa35.i = phi i32 [ %.118.lcssa.i, %22 ], [ %.pre, %.critedge.i ], [ %.pre, %19 ]
  %30 = add nsw i32 %.027.i, 1
  br label %31

31:                                               ; preds = %.critedge.thread.i, %22
  %.118.lcssa36.i = phi i32 [ %.118.lcssa35.i, %.critedge.thread.i ], [ %.118.lcssa.i, %22 ]
  %.1.i = phi i32 [ %30, %.critedge.thread.i ], [ %.027.i, %22 ]
  %indvars.iv.next31.i = add nuw nsw i64 %indvars.iv30.i, 1
  %exitcond33.not.i = icmp eq i64 %indvars.iv.next31.i, %wide.trip.count.i
  br i1 %exitcond33.not.i, label %_Z29gmx_ana_index_difference_sizeP15gmx_ana_index_tS0_.exit, label %.preheader.i, !llvm.loop !136

_Z29gmx_ana_index_difference_sizeP15gmx_ana_index_tS0_.exit: ; preds = %31, %3
  %.0.lcssa.i = phi i32 [ 0, %3 ], [ %.1.i, %31 ]
  %32 = add nsw i32 %.pre, %.0.lcssa.i
  store i32 %32, ptr %0, align 8, !tbaa !73
  %33 = icmp sgt i32 %32, 0
  br i1 %33, label %.lr.ph, label %._crit_edge

.lr.ph:                                           ; preds = %_Z29gmx_ana_index_difference_sizeP15gmx_ana_index_tS0_.exit
  %34 = add nsw i32 %4, -1
  %35 = add nsw i32 %.pre, -1
  %36 = getelementptr inbounds nuw i8, ptr %1, i64 8
  %37 = getelementptr inbounds nuw i8, ptr %2, i64 8
  %38 = getelementptr inbounds nuw i8, ptr %0, i64 8
  %39 = zext nneg i32 %32 to i64
  %40 = load ptr, ptr %38, align 8, !tbaa !108
  br label %41

41:                                               ; preds = %.lr.ph, %64
  %indvars.iv = phi i64 [ %39, %.lr.ph ], [ %indvars.iv.next, %64 ]
  %.02935 = phi i32 [ %34, %.lr.ph ], [ %.2, %64 ]
  %.03034 = phi i32 [ %35, %.lr.ph ], [ %.131, %64 ]
  %indvars.iv.next = add nsw i64 %indvars.iv, -1
  %42 = icmp slt i32 %.03034, 0
  br i1 %42, label %._crit_edge42, label %43

._crit_edge42:                                    ; preds = %41
  %.pre43 = load ptr, ptr %37, align 8, !tbaa !108
  br label %54

43:                                               ; preds = %41
  %44 = icmp sgt i32 %.02935, -1
  %.pre39 = load ptr, ptr %36, align 8, !tbaa !108
  %45 = zext nneg i32 %.03034 to i64
  %46 = getelementptr inbounds nuw i32, ptr %.pre39, i64 %45
  %47 = load i32, ptr %46, align 4, !tbaa !36
  br i1 %44, label %48, label %.critedge

48:                                               ; preds = %43
  %49 = load ptr, ptr %37, align 8, !tbaa !108
  %50 = zext nneg i32 %.02935 to i64
  %51 = getelementptr inbounds nuw i32, ptr %49, i64 %50
  %52 = load i32, ptr %51, align 4, !tbaa !36
  %53 = icmp slt i32 %47, %52
  br i1 %53, label %54, label %60

54:                                               ; preds = %._crit_edge42, %48
  %55 = phi ptr [ %.pre43, %._crit_edge42 ], [ %49, %48 ]
  %56 = add nsw i32 %.02935, -1
  %57 = sext i32 %.02935 to i64
  %58 = getelementptr inbounds i32, ptr %55, i64 %57
  %59 = load i32, ptr %58, align 4, !tbaa !36
  br label %64

60:                                               ; preds = %48
  %61 = icmp eq i32 %47, %52
  %62 = sext i1 %61 to i32
  %spec.select = add nsw i32 %.02935, %62
  br label %.critedge

.critedge:                                        ; preds = %43, %60
  %.1 = phi i32 [ %spec.select, %60 ], [ %.02935, %43 ]
  %63 = add nsw i32 %.03034, -1
  br label %64

64:                                               ; preds = %54, %.critedge
  %.sink = phi i32 [ %59, %54 ], [ %47, %.critedge ]
  %.131 = phi i32 [ %.03034, %54 ], [ %63, %.critedge ]
  %.2 = phi i32 [ %56, %54 ], [ %.1, %.critedge ]
  %65 = getelementptr inbounds nuw i32, ptr %40, i64 %indvars.iv.next
  store i32 %.sink, ptr %65, align 4, !tbaa !36
  %66 = icmp samesign ugt i64 %indvars.iv, 1
  br i1 %66, label %41, label %._crit_edge, !llvm.loop !140

._crit_edge:                                      ; preds = %64, %_Z29gmx_ana_index_difference_sizeP15gmx_ana_index_tS0_.exit
  ret void
}